target datalayout = "e-m:e-p270:32:32-p271:32:32-p272:64:64-i64:64-i128:128-f80:128-n8:16:32:64-S128"
target triple = "x86_64-pc-linux-gnu"

%"class.llvm::StringRef" = type { ptr, i64 }
%"class.std::__cxx11::basic_string" = type { %"struct.std::__cxx11::basic_string<char>::_Alloc_hider", i64, %union.anon }
%"struct.std::__cxx11::basic_string<char>::_Alloc_hider" = type { ptr }
%union.anon = type { i64, [8 x i8] }
%"class.llvm::SmallVectorBase" = type { ptr, i32, i32 }
%"class.llvm::gi::Pattern" = type { ptr, i32, %"class.llvm::StringRef" }
%"class.llvm::gi::InstructionPattern" = type { %"class.llvm::gi::Pattern", %"class.llvm::SmallVector.49" }
%"class.llvm::SmallVector.49" = type { %"class.llvm::SmallVectorImpl.50", %"struct.llvm::SmallVectorStorage.53" }
%"class.llvm::SmallVectorImpl.50" = type { %"class.llvm::SmallVectorTemplateBase.51" }
%"class.llvm::SmallVectorTemplateBase.51" = type { %"class.llvm::SmallVectorTemplateCommon.52" }
%"class.llvm::SmallVectorTemplateCommon.52" = type { %"class.llvm::SmallVectorBase" }
%"struct.llvm::SmallVectorStorage.53" = type { [256 x i8] }
%"class.llvm::StringMapImpl" = type { ptr, i32, i32, i32, i32 }
%"class.llvm::gi::CodeGenInstructionPattern" = type { %"class.llvm::gi::InstructionPattern", ptr, ptr, %"class.std::unique_ptr" }
%"class.std::unique_ptr" = type { %"struct.std::__uniq_ptr_data" }
%"struct.std::__uniq_ptr_data" = type { %"class.std::__uniq_ptr_impl" }
%"class.std::__uniq_ptr_impl" = type { %"class.std::tuple.76" }
%"class.std::tuple.76" = type { %"struct.std::_Tuple_impl.77" }
%"struct.std::_Tuple_impl.77" = type { %"struct.std::_Head_base.80" }
%"struct.std::_Head_base.80" = type { ptr }
%"class.llvm::CodeGenInstruction" = type <{ ptr, %"class.llvm::StringRef", %"class.std::__cxx11::basic_string", %"class.llvm::CGIOperandList", %"class.std::vector.85", %"class.std::vector.85", i64, %"class.std::__cxx11::basic_string", i8, [7 x i8], ptr, i32, [4 x i8] }>
%"class.llvm::CGIOperandList" = type <{ ptr, i32, [4 x i8], %"class.std::vector", %"class.llvm::StringMap.84", i8, i8, i8, [5 x i8] }>
%"class.std::vector" = type { %"struct.std::_Vector_base" }
%"struct.std::_Vector_base" = type { %"struct.std::_Vector_base<llvm::CGIOperandList::OperandInfo, std::allocator<llvm::CGIOperandList::OperandInfo>>::_Vector_impl" }
%"struct.std::_Vector_base<llvm::CGIOperandList::OperandInfo, std::allocator<llvm::CGIOperandList::OperandInfo>>::_Vector_impl" = type { %"struct.std::_Vector_base<llvm::CGIOperandList::OperandInfo, std::allocator<llvm::CGIOperandList::OperandInfo>>::_Vector_impl_data" }
%"struct.std::_Vector_base<llvm::CGIOperandList::OperandInfo, std::allocator<llvm::CGIOperandList::OperandInfo>>::_Vector_impl_data" = type { ptr, ptr, ptr }
%"class.llvm::StringMap.84" = type { %"class.llvm::StringMapImpl" }
%"class.std::vector.85" = type { %"struct.std::_Vector_base.86" }
%"struct.std::_Vector_base.86" = type { %"struct.std::_Vector_base<llvm::Record *, std::allocator<llvm::Record *>>::_Vector_impl" }
%"struct.std::_Vector_base<llvm::Record *, std::allocator<llvm::Record *>>::_Vector_impl" = type { %"struct.std::_Vector_base<llvm::Record *, std::allocator<llvm::Record *>>::_Vector_impl_data" }
%"struct.std::_Vector_base<llvm::Record *, std::allocator<llvm::Record *>>::_Vector_impl_data" = type { ptr, ptr, ptr }

; Function Attrs: mustprogress nounwind uwtable
define linkonce_odr hidden noundef zeroext i1 @_ZNK4llvm2gi25CodeGenInstructionPattern11isIntrinsicEv(ptr noundef nonnull align 8 dereferenceable(328) %0) #0 comdat align 2 {
  %2 = alloca ptr, align 8
  store ptr %0, ptr %2, align 8
  %3 = load ptr, ptr %2, align 8
  %4 = getelementptr inbounds nuw %"class.llvm::gi::CodeGenInstructionPattern", ptr %3, i32 0, i32 2
  %5 = load ptr, ptr %4, align 8
  %6 = icmp ne ptr %5, null
  ret i1 %6
}

; Function Attrs: mustprogress nounwind uwtable
define dso_local noundef zeroext i1 @_ZNK4llvm2gi25CodeGenInstructionPattern10isVariadicEv(ptr noundef nonnull align 8 dereferenceable(328) %0) unnamed_addr #0 align 2 {
  %2 = alloca ptr, align 8
  store ptr %0, ptr %2, align 8
  %3 = load ptr, ptr %2, align 8
  %4 = call noundef zeroext i1 @_ZNK4llvm2gi25CodeGenInstructionPattern11isIntrinsicEv(ptr noundef nonnull align 8 dereferenceable(328) %3)
  br i1 %4, label %12, label %5

5:                                                ; preds = %1
  %6 = getelementptr inbounds nuw %"class.llvm::gi::CodeGenInstructionPattern", ptr %3, i32 0, i32 1
  %7 = load ptr, ptr %6, align 8
  %8 = getelementptr inbounds nuw %"class.llvm::CodeGenInstruction", ptr %7, i32 0, i32 3
  %9 = getelementptr inbounds nuw %"class.llvm::CGIOperandList", ptr %8, i32 0, i32 7
  %10 = load i8, ptr %9, align 2
  %11 = trunc i8 %10 to i1
  br label %12

12:                                               ; preds = %5, %1
  %13 = phi i1 [ false, %1 ], [ %11, %5 ]
  ret i1 %13
}