; Function Attrs: mustprogress nofree norecurse nosync nounwind willreturn memory(read, inaccessiblemem: none) uwtable
define dso_local noundef zeroext i1 @_ZNK4llvm2gi25CodeGenInstructionPattern10isVariadicEv(ptr nocapture noundef nonnull readonly align 8 dereferenceable(328) %0) unnamed_addr #7 align 2 {
  %2 = getelementptr inbounds nuw i8, ptr %0, i64 312
  %3 = load ptr, ptr %2, align 8
  %.not = icmp eq ptr %3, null
  br i1 %.not, label %4, label %10

4:                                                ; preds = %1
  %5 = getelementptr inbounds nuw i8, ptr %0, i64 304
  %6 = load ptr, ptr %5, align 8
  %7 = getelementptr inbounds i8, ptr %6, i64 122
  %8 = load i8, ptr %7, align 2
  %9 = trunc i8 %8 to i1
  br label %10

10:                                               ; preds = %4, %1
  %11 = phi i1 [ false, %1 ], [ %9, %4 ]
  ret i1 %11
}